target datalayout = "e-m:e-p270:32:32-p271:32:32-p272:64:64-i64:64-i128:128-f80:128-n8:16:32:64-S128"
target triple = "x86_64-pc-linux-gnu"

%"class.duckdb::BufferedData" = type { ptr, i32, %"class.duckdb::weak_ptr", i64, %"class.std::mutex" }
%"class.duckdb::weak_ptr" = type { %"class.std::weak_ptr" }
%"class.std::weak_ptr" = type { %"class.std::__weak_ptr" }
%"class.std::__weak_ptr" = type { ptr, %"class.std::__weak_count" }
%"class.std::__weak_count" = type { ptr }
%"class.std::mutex" = type { %"class.std::__mutex_base" }
%"class.std::__mutex_base" = type { %union.pthread_mutex_t }
%union.pthread_mutex_t = type { %struct.__pthread_mutex_s }
%struct.__pthread_mutex_s = type { i32, i32, i32, i32, i32, i16, i16, %struct.__pthread_internal_list }
%struct.__pthread_internal_list = type { ptr, ptr }
%"class.duckdb::SimpleBufferedData" = type { %"class.duckdb::BufferedData", %"class.std::queue", %"class.std::queue.123", %"struct.std::atomic.64", i64 }
%"class.std::queue" = type { %"class.std::deque" }
%"class.std::deque" = type { %"class.std::_Deque_base" }
%"class.std::_Deque_base" = type { %"struct.std::_Deque_base<duckdb::InterruptState, std::allocator<duckdb::InterruptState>>::_Deque_impl" }
%"struct.std::_Deque_base<duckdb::InterruptState, std::allocator<duckdb::InterruptState>>::_Deque_impl" = type { %"struct.std::_Deque_base<duckdb::InterruptState, std::allocator<duckdb::InterruptState>>::_Deque_impl_data" }
%"struct.std::_Deque_base<duckdb::InterruptState, std::allocator<duckdb::InterruptState>>::_Deque_impl_data" = type { ptr, i64, %"struct.std::_Deque_iterator", %"struct.std::_Deque_iterator" }
%"struct.std::_Deque_iterator" = type { ptr, ptr, ptr, ptr }
%"class.std::queue.123" = type { %"class.std::deque.124" }
%"class.std::deque.124" = type { %"class.std::_Deque_base.125" }
%"class.std::_Deque_base.125" = type { %"struct.std::_Deque_base<duckdb::unique_ptr<duckdb::DataChunk>, std::allocator<duckdb::unique_ptr<duckdb::DataChunk>>>::_Deque_impl" }
%"struct.std::_Deque_base<duckdb::unique_ptr<duckdb::DataChunk>, std::allocator<duckdb::unique_ptr<duckdb::DataChunk>>>::_Deque_impl" = type { %"struct.std::_Deque_base<duckdb::unique_ptr<duckdb::DataChunk>, std::allocator<duckdb::unique_ptr<duckdb::DataChunk>>>::_Deque_impl_data" }
%"struct.std::_Deque_base<duckdb::unique_ptr<duckdb::DataChunk>, std::allocator<duckdb::unique_ptr<duckdb::DataChunk>>>::_Deque_impl_data" = type { ptr, i64, %"struct.std::_Deque_iterator.129", %"struct.std::_Deque_iterator.129" }
%"struct.std::_Deque_iterator.129" = type { ptr, ptr, ptr, ptr }
%"struct.std::atomic.64" = type { %"struct.std::__atomic_base.65" }
%"struct.std::__atomic_base.65" = type { i64 }
%"class.std::_Sp_counted_base" = type { ptr, i32, i32 }

@_ZTVN6duckdb12BufferedDataE = unnamed_addr constant { [7 x ptr] } { [7 x ptr] [ptr null, ptr @_ZTIN6duckdb12BufferedDataE, ptr @_ZN6duckdb12BufferedDataD1Ev, ptr @_ZN6duckdb12BufferedDataD0Ev, ptr @__cxa_pure_virtual, ptr @__cxa_pure_virtual, ptr @__cxa_pure_virtual] }, align 8
@__libc_single_threaded = external global i8, align 1

; Function Attrs: alwaysinline mustprogress nounwind uwtable
define linkonce_odr noundef i32 @_ZN9__gnu_cxx18__exchange_and_addEPVii(ptr noundef %0, i32 noundef %1) #14 comdat {
  %3 = alloca ptr, align 8
  %4 = alloca i32, align 4
  %5 = alloca i32, align 4
  %6 = alloca i32, align 4
  store ptr %0, ptr %3, align 8, !tbaa !220
  store i32 %1, ptr %4, align 4, !tbaa !177
  %7 = load ptr, ptr %3, align 8, !tbaa !220
  %8 = load i32, ptr %4, align 4, !tbaa !177
  store i32 %8, ptr %5, align 4, !tbaa !177
  %9 = load i32, ptr %5, align 4
  %10 = atomicrmw volatile add ptr %7, i32 %9 acq_rel, align 4
  store i32 %10, ptr %6, align 4
  %11 = load i32, ptr %6, align 4, !tbaa !177
  ret i32 %11
}

; Function Attrs: alwaysinline mustprogress nounwind uwtable
define linkonce_odr noundef i32 @_ZN9__gnu_cxx25__exchange_and_add_singleEPii(ptr noundef %0, i32 noundef %1) #14 comdat {
  %3 = alloca ptr, align 8
  %4 = alloca i32, align 4
  %5 = alloca i32, align 4
  store ptr %0, ptr %3, align 8, !tbaa !220
  store i32 %1, ptr %4, align 4, !tbaa !177
  call void @llvm.lifetime.start.p0(i64 4, ptr %5) #19
  %6 = load ptr, ptr %3, align 8, !tbaa !220
  %7 = load i32, ptr %6, align 4, !tbaa !177
  store i32 %7, ptr %5, align 4, !tbaa !177
  %8 = load i32, ptr %4, align 4, !tbaa !177
  %9 = load ptr, ptr %3, align 8, !tbaa !220
  %10 = load i32, ptr %9, align 4, !tbaa !177
  %11 = add nsw i32 %10, %8
  store i32 %11, ptr %9, align 4, !tbaa !177
  %12 = load i32, ptr %5, align 4, !tbaa !177
  call void @llvm.lifetime.end.p0(i64 4, ptr %5) #19
  ret i32 %12
}

; Function Attrs: alwaysinline mustprogress nounwind uwtable
define linkonce_odr noundef zeroext i1 @_ZN9__gnu_cxx20__is_single_threadedEv() #14 comdat {
  %1 = load i8, ptr @__libc_single_threaded, align 1, !tbaa !222
  %2 = icmp ne i8 %1, 0
  ret i1 %2
}

; Function Attrs: noinline noreturn nounwind uwtable
define linkonce_odr hidden void @__clang_call_terminate(ptr noundef %0) #11 comdat {
  %2 = call ptr @__cxa_begin_catch(ptr %0) #19
  call void @_ZSt9terminatev() #20
  unreachable
}

; Function Attrs: alwaysinline mustprogress uwtable
define linkonce_odr noundef i32 @_ZN9__gnu_cxx27__exchange_and_add_dispatchEPii(ptr noundef %0, i32 noundef %1) #10 comdat {
  %3 = alloca i32, align 4
  %4 = alloca ptr, align 8
  %5 = alloca i32, align 4
  store ptr %0, ptr %4, align 8, !tbaa !220
  store i32 %1, ptr %5, align 4, !tbaa !177
  %6 = call noundef zeroext i1 @_ZN9__gnu_cxx20__is_single_threadedEv() #19
  br i1 %6, label %7, label %11

7:                                                ; preds = %2
  %8 = load ptr, ptr %4, align 8, !tbaa !220
  %9 = load i32, ptr %5, align 4, !tbaa !177
  %10 = call noundef i32 @_ZN9__gnu_cxx25__exchange_and_add_singleEPii(ptr noundef %8, i32 noundef %9)
  store i32 %10, ptr %3, align 4
  br label %15

11:                                               ; preds = %2
  %12 = load ptr, ptr %4, align 8, !tbaa !220
  %13 = load i32, ptr %5, align 4, !tbaa !177
  %14 = call noundef i32 @_ZN9__gnu_cxx18__exchange_and_addEPVii(ptr noundef %12, i32 noundef %13)
  store i32 %14, ptr %3, align 4
  br label %15

15:                                               ; preds = %11, %7
  %16 = load i32, ptr %3, align 4
  ret i32 %16
}

; Function Attrs: mustprogress nounwind uwtable
define linkonce_odr void @_ZNSt16_Sp_counted_baseILN9__gnu_cxx12_Lock_policyE2EE15_M_weak_releaseEv(ptr noundef nonnull align 8 dereferenceable(16) %0) #1 comdat align 2 personality ptr @__gxx_personality_v0 {
  %2 = alloca ptr, align 8
  store ptr %0, ptr %2, align 8, !tbaa !212
  %3 = load ptr, ptr %2, align 8
  %4 = getelementptr inbounds nuw %"class.std::_Sp_counted_base", ptr %3, i32 0, i32 2
  %5 = invoke noundef i32 @_ZN9__gnu_cxx27__exchange_and_add_dispatchEPii(ptr noundef %4, i32 noundef -1)
          to label %6 unwind label %13

6:                                                ; preds = %1
  %7 = icmp eq i32 %5, 1
  br i1 %7, label %8, label %12

8:                                                ; preds = %6
  %9 = load ptr, ptr %3, align 8, !tbaa !12
  %10 = getelementptr inbounds ptr, ptr %9, i64 3
  %11 = load ptr, ptr %10, align 8
  call void %11(ptr noundef nonnull align 8 dereferenceable(16) %3) #19
  br label %12

12:                                               ; preds = %8, %6
  ret void

13:                                               ; preds = %1
  %14 = landingpad { ptr, i32 }
          catch ptr null
  %15 = extractvalue { ptr, i32 } %14, 0
  call void @__clang_call_terminate(ptr %15) #20
  unreachable
}

; Function Attrs: mustprogress nounwind uwtable
define linkonce_odr void @_ZNSt12__weak_countILN9__gnu_cxx12_Lock_policyE2EED2Ev(ptr noundef nonnull align 8 dereferenceable(8) %0) unnamed_addr #1 comdat align 2 {
  %2 = alloca ptr, align 8
  store ptr %0, ptr %2, align 8, !tbaa !223
  %3 = load ptr, ptr %2, align 8
  %4 = getelementptr inbounds nuw %"class.std::__weak_count", ptr %3, i32 0, i32 0
  %5 = load ptr, ptr %4, align 8, !tbaa !225
  %6 = icmp ne ptr %5, null
  br i1 %6, label %7, label %10

7:                                                ; preds = %1
  %8 = getelementptr inbounds nuw %"class.std::__weak_count", ptr %3, i32 0, i32 0
  %9 = load ptr, ptr %8, align 8, !tbaa !225
  call void @_ZNSt16_Sp_counted_baseILN9__gnu_cxx12_Lock_policyE2EE15_M_weak_releaseEv(ptr noundef nonnull align 8 dereferenceable(16) %9) #19
  br label %10

10:                                               ; preds = %7, %1
  ret void
}

; Function Attrs: mustprogress nounwind uwtable
define linkonce_odr void @_ZNSt10__weak_ptrIN6duckdb13ClientContextELN9__gnu_cxx12_Lock_policyE2EED2Ev(ptr noundef nonnull align 8 dereferenceable(16) %0) unnamed_addr #1 comdat align 2 {
  %2 = alloca ptr, align 8
  store ptr %0, ptr %2, align 8, !tbaa !281
  %3 = load ptr, ptr %2, align 8
  %4 = getelementptr inbounds nuw %"class.std::__weak_ptr", ptr %3, i32 0, i32 1
  call void @_ZNSt12__weak_countILN9__gnu_cxx12_Lock_policyE2EED2Ev(ptr noundef nonnull align 8 dereferenceable(8) %4) #19
  ret void
}

; Function Attrs: mustprogress nounwind uwtable
define linkonce_odr void @_ZN6duckdb8weak_ptrINS_13ClientContextELb1EED2Ev(ptr noundef nonnull align 8 dereferenceable(16) %0) unnamed_addr #1 comdat align 2 {
  %2 = alloca ptr, align 8
  store ptr %0, ptr %2, align 8, !tbaa !10
  %3 = load ptr, ptr %2, align 8
  %4 = getelementptr inbounds nuw %"class.duckdb::weak_ptr", ptr %3, i32 0, i32 0
  call void @_ZNSt10__weak_ptrIN6duckdb13ClientContextELN9__gnu_cxx12_Lock_policyE2EED2Ev(ptr noundef nonnull align 8 dereferenceable(16) %4) #19
  ret void
}

; Function Attrs: mustprogress nounwind uwtable
define void @_ZN6duckdb12BufferedDataD2Ev(ptr noundef nonnull align 8 dereferenceable(80) %0) unnamed_addr #1 align 2 {
  %2 = alloca ptr, align 8
  store ptr %0, ptr %2, align 8, !tbaa !3
  %3 = load ptr, ptr %2, align 8
  store ptr getelementptr inbounds inrange(-16, 40) ({ [7 x ptr] }, ptr @_ZTVN6duckdb12BufferedDataE, i32 0, i32 0, i32 2), ptr %3, align 8, !tbaa !12
  %4 = getelementptr inbounds nuw %"class.duckdb::BufferedData", ptr %3, i32 0, i32 2
  call void @_ZN6duckdb8weak_ptrINS_13ClientContextELb1EED2Ev(ptr noundef nonnull align 8 dereferenceable(16) %4) #19
  ret void
}

; Function Attrs: inlinehint mustprogress nounwind uwtable
define linkonce_odr void @_ZNSt5queueIN6duckdb14InterruptStateESt5dequeIS1_SaIS1_EEED2Ev(ptr noundef nonnull align 8 dereferenceable(80) %0) unnamed_addr #5 comdat align 2 {
  %2 = alloca ptr, align 8
  store ptr %0, ptr %2, align 8, !tbaa !83
  %3 = load ptr, ptr %2, align 8
  %4 = getelementptr inbounds nuw %"class.std::queue", ptr %3, i32 0, i32 0
  call void @_ZNSt5dequeIN6duckdb14InterruptStateESaIS1_EED2Ev(ptr noundef nonnull align 8 dereferenceable(80) %4) #19
  ret void
}

; Function Attrs: inlinehint mustprogress nounwind uwtable
define linkonce_odr void @_ZNSt5queueIN6duckdb10unique_ptrINS0_9DataChunkESt14default_deleteIS2_ELb1EEESt5dequeIS5_SaIS5_EEED2Ev(ptr noundef nonnull align 8 dereferenceable(80) %0) unnamed_addr #5 comdat align 2 {
  %2 = alloca ptr, align 8
  store ptr %0, ptr %2, align 8, !tbaa !85
  %3 = load ptr, ptr %2, align 8
  %4 = getelementptr inbounds nuw %"class.std::queue.123", ptr %3, i32 0, i32 0
  call void @_ZNSt5dequeIN6duckdb10unique_ptrINS0_9DataChunkESt14default_deleteIS2_ELb1EEESaIS5_EED2Ev(ptr noundef nonnull align 8 dereferenceable(80) %4) #19
  ret void
}

; Function Attrs: mustprogress nounwind uwtable
define void @_ZN6duckdb18SimpleBufferedDataD2Ev(ptr noundef nonnull align 8 dereferenceable(256) %0) unnamed_addr #1 align 2 {
  %2 = alloca ptr, align 8
  store ptr %0, ptr %2, align 8, !tbaa !61
  %3 = load ptr, ptr %2, align 8
  store ptr getelementptr inbounds inrange(-16, 40) ({ [7 x ptr] }, ptr @_ZTVN6duckdb18SimpleBufferedDataE, i32 0, i32 0, i32 2), ptr %3, align 8, !tbaa !12
  %4 = getelementptr inbounds nuw %"class.duckdb::SimpleBufferedData", ptr %3, i32 0, i32 2
  call void @_ZNSt5queueIN6duckdb10unique_ptrINS0_9DataChunkESt14default_deleteIS2_ELb1EEESt5dequeIS5_SaIS5_EEED2Ev(ptr noundef nonnull align 8 dereferenceable(80) %4) #19
  %5 = getelementptr inbounds nuw %"class.duckdb::SimpleBufferedData", ptr %3, i32 0, i32 1
  call void @_ZNSt5queueIN6duckdb14InterruptStateESt5dequeIS1_SaIS1_EEED2Ev(ptr noundef nonnull align 8 dereferenceable(80) %5) #19
  call void @_ZN6duckdb12BufferedDataD2Ev(ptr noundef nonnull align 8 dereferenceable(80) %3) #19
  ret void
}