; Function Attrs: mustprogress nounwind uwtable
define void @_ZN6duckdb18SimpleBufferedDataD2Ev(ptr noundef nonnull align 8 dereferenceable(256) initializes((0, 8)) %0) unnamed_addr #3 align 2 personality ptr @__gxx_personality_v0 {
  store ptr getelementptr inbounds nuw inrange(-16, 40) (i8, ptr @_ZTVN6duckdb18SimpleBufferedDataE, i64 16), ptr %0, align 8, !tbaa !3
  %2 = getelementptr inbounds nuw i8, ptr %0, i64 160
  tail call void @_ZNSt5dequeIN6duckdb10unique_ptrINS0_9DataChunkESt14default_deleteIS2_ELb1EEESaIS5_EED2Ev(ptr noundef nonnull align 8 dereferenceable(80) %2) #24
  %3 = getelementptr inbounds nuw i8, ptr %0, i64 80
  tail call void @_ZNSt5dequeIN6duckdb14InterruptStateESaIS1_EED2Ev(ptr noundef nonnull align 8 dereferenceable(80) %3) #24
  store ptr getelementptr inbounds nuw inrange(-16, 40) (i8, ptr @_ZTVN6duckdb12BufferedDataE, i64 16), ptr %0, align 8, !tbaa !3
  %4 = getelementptr inbounds nuw i8, ptr %0, i64 24
  %5 = load ptr, ptr %4, align 8, !tbaa !21
  %.not.i.i.i.i = icmp eq ptr %5, null
  br i1 %.not.i.i.i.i, label %_ZN6duckdb12BufferedDataD2Ev.exit, label %6

6:                                                ; preds = %1
  %7 = getelementptr inbounds nuw i8, ptr %5, i64 12
  %8 = load i8, ptr @__libc_single_threaded, align 1, !tbaa !48
  %.not.i.i.i.i.i = icmp eq i8 %8, 0
  br i1 %.not.i.i.i.i.i, label %12, label %9

9:                                                ; preds = %6
  %10 = load i32, ptr %7, align 4, !tbaa !49
  %11 = add nsw i32 %10, -1
  store i32 %11, ptr %7, align 4, !tbaa !49
  br label %_ZN9__gnu_cxx27__exchange_and_add_dispatchEPii.exit.i.i.i.i.i

12:                                               ; preds = %6
  %13 = atomicrmw volatile add ptr %7, i32 -1 acq_rel, align 4
  br label %_ZN9__gnu_cxx27__exchange_and_add_dispatchEPii.exit.i.i.i.i.i

_ZN9__gnu_cxx27__exchange_and_add_dispatchEPii.exit.i.i.i.i.i: ; preds = %12, %9
  %.0.i.i.i.i.i.i = phi i32 [ %10, %9 ], [ %13, %12 ]
  %14 = icmp eq i32 %.0.i.i.i.i.i.i, 1
  br i1 %14, label %15, label %_ZN6duckdb12BufferedDataD2Ev.exit

15:                                               ; preds = %_ZN9__gnu_cxx27__exchange_and_add_dispatchEPii.exit.i.i.i.i.i
  %16 = load ptr, ptr %5, align 8, !tbaa !3
  %17 = getelementptr inbounds nuw i8, ptr %16, i64 24
  %18 = load ptr, ptr %17, align 8
  tail call void %18(ptr noundef nonnull align 8 dereferenceable(16) %5) #24
  br label %_ZN6duckdb12BufferedDataD2Ev.exit

_ZN6duckdb12BufferedDataD2Ev.exit:                ; preds = %1, %_ZN9__gnu_cxx27__exchange_and_add_dispatchEPii.exit.i.i.i.i.i, %15
  ret void
}